target datalayout = "e-m:e-p270:32:32-p271:32:32-p272:64:64-i64:64-i128:128-f80:128-n8:16:32:64-S128"
target triple = "x86_64-pc-linux-gnu"

%struct.FunctionCallInfoBaseData = type { ptr, ptr, ptr, i32, i8, i16, [0 x %struct.NullableDatum] }
%struct.NullableDatum = type { i64, i8 }
%struct.TSQueryData = type { i32, i32, [0 x i8] }
%struct.anon = type { i32, [0 x i8] }

; Function Attrs: nounwind uwtable
define dso_local ptr @findsubquery(ptr noundef %0, ptr noundef %1, ptr noundef %2, ptr noundef %3) #0 {
  %5 = alloca ptr, align 8
  %6 = alloca ptr, align 8
  %7 = alloca ptr, align 8
  %8 = alloca ptr, align 8
  %9 = alloca i8, align 1
  store ptr %0, ptr %5, align 8
  store ptr %1, ptr %6, align 8
  store ptr %2, ptr %7, align 8
  store ptr %3, ptr %8, align 8
  call void @llvm.lifetime.start.p0(i64 1, ptr %9) #6
  store i8 0, ptr %9, align 1
  %10 = load ptr, ptr %5, align 8
  %11 = load ptr, ptr %6, align 8
  %12 = load ptr, ptr %7, align 8
  %13 = call ptr @dofindsubquery(ptr noundef %10, ptr noundef %11, ptr noundef %12, ptr noundef %9)
  store ptr %13, ptr %5, align 8
  %14 = load ptr, ptr %8, align 8
  %15 = icmp ne ptr %14, null
  br i1 %15, label %16, label %21

16:                                               ; preds = %4
  %17 = load i8, ptr %9, align 1, !range !4, !noundef !5
  %18 = trunc i8 %17 to i1
  %19 = load ptr, ptr %8, align 8
  %20 = zext i1 %18 to i8
  store i8 %20, ptr %19, align 1
  br label %21

21:                                               ; preds = %16, %4
  %22 = load ptr, ptr %5, align 8
  call void @llvm.lifetime.end.p0(i64 1, ptr %9) #6
  ret ptr %22
}

; Function Attrs: inlinehint nounwind uwtable
define internal i64 @PointerGetDatum(ptr noundef %0) #2 {
  %2 = alloca ptr, align 8
  store ptr %0, ptr %2, align 8
  %3 = load ptr, ptr %2, align 8
  %4 = ptrtoint ptr %3 to i64
  ret i64 %4
}

; Function Attrs: inlinehint nounwind uwtable
define internal ptr @DatumGetPointer(i64 noundef %0) #2 {
  %2 = alloca i64, align 8
  store i64 %0, ptr %2, align 8
  %3 = load i64, ptr %2, align 8
  %4 = inttoptr i64 %3 to ptr
  ret ptr %4
}

; Function Attrs: inlinehint nounwind uwtable
define internal ptr @DatumGetTSQuery(i64 noundef %0) #2 {
  %2 = alloca i64, align 8
  store i64 %0, ptr %2, align 8
  %3 = load i64, ptr %2, align 8
  %4 = call ptr @DatumGetPointer(i64 noundef %3)
  ret ptr %4
}

; Function Attrs: inlinehint nounwind uwtable
define internal ptr @DatumGetTSQueryCopy(i64 noundef %0) #2 {
  %2 = alloca i64, align 8
  store i64 %0, ptr %2, align 8
  %3 = load i64, ptr %2, align 8
  %4 = call ptr @DatumGetPointer(i64 noundef %3)
  %5 = call ptr @pg_detoast_datum_copy(ptr noundef %4)
  ret ptr %5
}

; Function Attrs: nounwind uwtable
define dso_local i64 @tsquery_rewrite(ptr noundef %0) #0 {
  %2 = alloca i64, align 8
  %3 = alloca ptr, align 8
  %4 = alloca ptr, align 8
  %5 = alloca ptr, align 8
  %6 = alloca ptr, align 8
  %7 = alloca ptr, align 8
  %8 = alloca ptr, align 8
  %9 = alloca ptr, align 8
  %10 = alloca ptr, align 8
  %11 = alloca i32, align 4
  store ptr %0, ptr %3, align 8
  call void @llvm.lifetime.start.p0(i64 8, ptr %4) #6
  %12 = load ptr, ptr %3, align 8
  %13 = getelementptr inbounds nuw %struct.FunctionCallInfoBaseData, ptr %12, i32 0, i32 6
  %14 = getelementptr inbounds [0 x %struct.NullableDatum], ptr %13, i64 0, i64 0
  %15 = getelementptr inbounds nuw %struct.NullableDatum, ptr %14, i32 0, i32 0
  %16 = load i64, ptr %15, align 8
  %17 = call ptr @DatumGetTSQueryCopy(i64 noundef %16)
  store ptr %17, ptr %4, align 8
  call void @llvm.lifetime.start.p0(i64 8, ptr %5) #6
  %18 = load ptr, ptr %3, align 8
  %19 = getelementptr inbounds nuw %struct.FunctionCallInfoBaseData, ptr %18, i32 0, i32 6
  %20 = getelementptr inbounds [0 x %struct.NullableDatum], ptr %19, i64 0, i64 1
  %21 = getelementptr inbounds nuw %struct.NullableDatum, ptr %20, i32 0, i32 0
  %22 = load i64, ptr %21, align 8
  %23 = call ptr @DatumGetTSQuery(i64 noundef %22)
  store ptr %23, ptr %5, align 8
  call void @llvm.lifetime.start.p0(i64 8, ptr %6) #6
  %24 = load ptr, ptr %3, align 8
  %25 = getelementptr inbounds nuw %struct.FunctionCallInfoBaseData, ptr %24, i32 0, i32 6
  %26 = getelementptr inbounds [0 x %struct.NullableDatum], ptr %25, i64 0, i64 2
  %27 = getelementptr inbounds nuw %struct.NullableDatum, ptr %26, i32 0, i32 0
  %28 = load i64, ptr %27, align 8
  %29 = call ptr @DatumGetTSQuery(i64 noundef %28)
  store ptr %29, ptr %6, align 8
  call void @llvm.lifetime.start.p0(i64 8, ptr %7) #6
  %30 = load ptr, ptr %4, align 8
  store ptr %30, ptr %7, align 8
  call void @llvm.lifetime.start.p0(i64 8, ptr %8) #6
  call void @llvm.lifetime.start.p0(i64 8, ptr %9) #6
  call void @llvm.lifetime.start.p0(i64 8, ptr %10) #6
  store ptr null, ptr %10, align 8
  %31 = load ptr, ptr %4, align 8
  %32 = getelementptr inbounds nuw %struct.TSQueryData, ptr %31, i32 0, i32 1
  %33 = load i32, ptr %32, align 4
  %34 = icmp eq i32 %33, 0
  br i1 %34, label %40, label %35

35:                                               ; preds = %1
  %36 = load ptr, ptr %5, align 8
  %37 = getelementptr inbounds nuw %struct.TSQueryData, ptr %36, i32 0, i32 1
  %38 = load i32, ptr %37, align 4
  %39 = icmp eq i32 %38, 0
  br i1 %39, label %40, label %71

40:                                               ; preds = %35, %1
  br label %41

41:                                               ; preds = %40
  %42 = load ptr, ptr %5, align 8
  %43 = load ptr, ptr %3, align 8
  %44 = getelementptr inbounds nuw %struct.FunctionCallInfoBaseData, ptr %43, i32 0, i32 6
  %45 = getelementptr inbounds [0 x %struct.NullableDatum], ptr %44, i64 0, i64 1
  %46 = getelementptr inbounds nuw %struct.NullableDatum, ptr %45, i32 0, i32 0
  %47 = load i64, ptr %46, align 8
  %48 = call ptr @DatumGetPointer(i64 noundef %47)
  %49 = icmp ne ptr %42, %48
  br i1 %49, label %50, label %52

50:                                               ; preds = %41
  %51 = load ptr, ptr %5, align 8
  call void @pfree(ptr noundef %51)
  br label %52

52:                                               ; preds = %50, %41
  br label %53

53:                                               ; preds = %52
  br label %54

54:                                               ; preds = %53
  br label %55

55:                                               ; preds = %54
  %56 = load ptr, ptr %6, align 8
  %57 = load ptr, ptr %3, align 8
  %58 = getelementptr inbounds nuw %struct.FunctionCallInfoBaseData, ptr %57, i32 0, i32 6
  %59 = getelementptr inbounds [0 x %struct.NullableDatum], ptr %58, i64 0, i64 2
  %60 = getelementptr inbounds nuw %struct.NullableDatum, ptr %59, i32 0, i32 0
  %61 = load i64, ptr %60, align 8
  %62 = call ptr @DatumGetPointer(i64 noundef %61)
  %63 = icmp ne ptr %56, %62
  br i1 %63, label %64, label %66

64:                                               ; preds = %55
  %65 = load ptr, ptr %6, align 8
  call void @pfree(ptr noundef %65)
  br label %66

66:                                               ; preds = %64, %55
  br label %67

67:                                               ; preds = %66
  br label %68

68:                                               ; preds = %67
  %69 = load ptr, ptr %7, align 8
  %70 = call i64 @PointerGetDatum(ptr noundef %69)
  store i64 %70, ptr %2, align 8
  store i32 1, ptr %11, align 4
  br label %208

71:                                               ; preds = %35
  %72 = load ptr, ptr %4, align 8
  %73 = getelementptr inbounds nuw i8, ptr %72, i64 8
  %74 = load ptr, ptr %4, align 8
  %75 = getelementptr inbounds nuw i8, ptr %74, i64 8
  %76 = load ptr, ptr %4, align 8
  %77 = getelementptr inbounds nuw %struct.TSQueryData, ptr %76, i32 0, i32 1
  %78 = load i32, ptr %77, align 4
  %79 = sext i32 %78 to i64
  %80 = mul i64 %79, 12
  %81 = getelementptr inbounds nuw i8, ptr %75, i64 %80
  %82 = call ptr @QT2QTN(ptr noundef %73, ptr noundef %81)
  store ptr %82, ptr %8, align 8
  %83 = load ptr, ptr %8, align 8
  call void @QTNTernary(ptr noundef %83)
  %84 = load ptr, ptr %8, align 8
  call void @QTNSort(ptr noundef %84)
  %85 = load ptr, ptr %5, align 8
  %86 = getelementptr inbounds nuw i8, ptr %85, i64 8
  %87 = load ptr, ptr %5, align 8
  %88 = getelementptr inbounds nuw i8, ptr %87, i64 8
  %89 = load ptr, ptr %5, align 8
  %90 = getelementptr inbounds nuw %struct.TSQueryData, ptr %89, i32 0, i32 1
  %91 = load i32, ptr %90, align 4
  %92 = sext i32 %91 to i64
  %93 = mul i64 %92, 12
  %94 = getelementptr inbounds nuw i8, ptr %88, i64 %93
  %95 = call ptr @QT2QTN(ptr noundef %86, ptr noundef %94)
  store ptr %95, ptr %9, align 8
  %96 = load ptr, ptr %9, align 8
  call void @QTNTernary(ptr noundef %96)
  %97 = load ptr, ptr %9, align 8
  call void @QTNSort(ptr noundef %97)
  %98 = load ptr, ptr %6, align 8
  %99 = getelementptr inbounds nuw %struct.TSQueryData, ptr %98, i32 0, i32 1
  %100 = load i32, ptr %99, align 4
  %101 = icmp ne i32 %100, 0
  br i1 %101, label %102, label %114

102:                                              ; preds = %71
  %103 = load ptr, ptr %6, align 8
  %104 = getelementptr inbounds nuw i8, ptr %103, i64 8
  %105 = load ptr, ptr %6, align 8
  %106 = getelementptr inbounds nuw i8, ptr %105, i64 8
  %107 = load ptr, ptr %6, align 8
  %108 = getelementptr inbounds nuw %struct.TSQueryData, ptr %107, i32 0, i32 1
  %109 = load i32, ptr %108, align 4
  %110 = sext i32 %109 to i64
  %111 = mul i64 %110, 12
  %112 = getelementptr inbounds nuw i8, ptr %106, i64 %111
  %113 = call ptr @QT2QTN(ptr noundef %104, ptr noundef %112)
  store ptr %113, ptr %10, align 8
  br label %114

114:                                              ; preds = %102, %71
  %115 = load ptr, ptr %8, align 8
  %116 = load ptr, ptr %9, align 8
  %117 = load ptr, ptr %10, align 8
  %118 = call ptr @findsubquery(ptr noundef %115, ptr noundef %116, ptr noundef %117, ptr noundef null)
  store ptr %118, ptr %8, align 8
  %119 = load ptr, ptr %9, align 8
  call void @QTNFree(ptr noundef %119)
  %120 = load ptr, ptr %10, align 8
  call void @QTNFree(ptr noundef %120)
  %121 = load ptr, ptr %8, align 8
  %122 = icmp ne ptr %121, null
  br i1 %122, label %158, label %123

123:                                              ; preds = %114
  %124 = load ptr, ptr %7, align 8
  %125 = getelementptr inbounds nuw %struct.anon, ptr %124, i32 0, i32 0
  store i32 32, ptr %125, align 4
  %126 = load ptr, ptr %7, align 8
  %127 = getelementptr inbounds nuw %struct.TSQueryData, ptr %126, i32 0, i32 1
  store i32 0, ptr %127, align 4
  br label %128

128:                                              ; preds = %123
  %129 = load ptr, ptr %5, align 8
  %130 = load ptr, ptr %3, align 8
  %131 = getelementptr inbounds nuw %struct.FunctionCallInfoBaseData, ptr %130, i32 0, i32 6
  %132 = getelementptr inbounds [0 x %struct.NullableDatum], ptr %131, i64 0, i64 1
  %133 = getelementptr inbounds nuw %struct.NullableDatum, ptr %132, i32 0, i32 0
  %134 = load i64, ptr %133, align 8
  %135 = call ptr @DatumGetPointer(i64 noundef %134)
  %136 = icmp ne ptr %129, %135
  br i1 %136, label %137, label %139

137:                                              ; preds = %128
  %138 = load ptr, ptr %5, align 8
  call void @pfree(ptr noundef %138)
  br label %139

139:                                              ; preds = %137, %128
  br label %140

140:                                              ; preds = %139
  br label %141

141:                                              ; preds = %140
  br label %142

142:                                              ; preds = %141
  %143 = load ptr, ptr %6, align 8
  %144 = load ptr, ptr %3, align 8
  %145 = getelementptr inbounds nuw %struct.FunctionCallInfoBaseData, ptr %144, i32 0, i32 6
  %146 = getelementptr inbounds [0 x %struct.NullableDatum], ptr %145, i64 0, i64 2
  %147 = getelementptr inbounds nuw %struct.NullableDatum, ptr %146, i32 0, i32 0
  %148 = load i64, ptr %147, align 8
  %149 = call ptr @DatumGetPointer(i64 noundef %148)
  %150 = icmp ne ptr %143, %149
  br i1 %150, label %151, label %153

151:                                              ; preds = %142
  %152 = load ptr, ptr %6, align 8
  call void @pfree(ptr noundef %152)
  br label %153

153:                                              ; preds = %151, %142
  br label %154

154:                                              ; preds = %153
  br label %155

155:                                              ; preds = %154
  %156 = load ptr, ptr %7, align 8
  %157 = call i64 @PointerGetDatum(ptr noundef %156)
  store i64 %157, ptr %2, align 8
  store i32 1, ptr %11, align 4
  br label %208

158:                                              ; preds = %114
  %159 = load ptr, ptr %8, align 8
  call void @QTNBinary(ptr noundef %159)
  %160 = load ptr, ptr %8, align 8
  %161 = call ptr @QTN2QT(ptr noundef %160)
  store ptr %161, ptr %7, align 8
  %162 = load ptr, ptr %8, align 8
  call void @QTNFree(ptr noundef %162)
  br label %163

163:                                              ; preds = %158
  br label %164

164:                                              ; preds = %163
  %165 = load ptr, ptr %4, align 8
  %166 = load ptr, ptr %3, align 8
  %167 = getelementptr inbounds nuw %struct.FunctionCallInfoBaseData, ptr %166, i32 0, i32 6
  %168 = getelementptr inbounds [0 x %struct.NullableDatum], ptr %167, i64 0, i64 0
  %169 = getelementptr inbounds nuw %struct.NullableDatum, ptr %168, i32 0, i32 0
  %170 = load i64, ptr %169, align 8
  %171 = call ptr @DatumGetPointer(i64 noundef %170)
  %172 = icmp ne ptr %165, %171
  br i1 %172, label %173, label %175

173:                                              ; preds = %164
  %174 = load ptr, ptr %4, align 8
  call void @pfree(ptr noundef %174)
  br label %175

175:                                              ; preds = %173, %164
  br label %176

176:                                              ; preds = %175
  br label %177

177:                                              ; preds = %176
  br label %178

178:                                              ; preds = %177
  %179 = load ptr, ptr %5, align 8
  %180 = load ptr, ptr %3, align 8
  %181 = getelementptr inbounds nuw %struct.FunctionCallInfoBaseData, ptr %180, i32 0, i32 6
  %182 = getelementptr inbounds [0 x %struct.NullableDatum], ptr %181, i64 0, i64 1
  %183 = getelementptr inbounds nuw %struct.NullableDatum, ptr %182, i32 0, i32 0
  %184 = load i64, ptr %183, align 8
  %185 = call ptr @DatumGetPointer(i64 noundef %184)
  %186 = icmp ne ptr %179, %185
  br i1 %186, label %187, label %189

187:                                              ; preds = %178
  %188 = load ptr, ptr %5, align 8
  call void @pfree(ptr noundef %188)
  br label %189

189:                                              ; preds = %187, %178
  br label %190

190:                                              ; preds = %189
  br label %191

191:                                              ; preds = %190
  br label %192

192:                                              ; preds = %191
  %193 = load ptr, ptr %6, align 8
  %194 = load ptr, ptr %3, align 8
  %195 = getelementptr inbounds nuw %struct.FunctionCallInfoBaseData, ptr %194, i32 0, i32 6
  %196 = getelementptr inbounds [0 x %struct.NullableDatum], ptr %195, i64 0, i64 2
  %197 = getelementptr inbounds nuw %struct.NullableDatum, ptr %196, i32 0, i32 0
  %198 = load i64, ptr %197, align 8
  %199 = call ptr @DatumGetPointer(i64 noundef %198)
  %200 = icmp ne ptr %193, %199
  br i1 %200, label %201, label %203

201:                                              ; preds = %192
  %202 = load ptr, ptr %6, align 8
  call void @pfree(ptr noundef %202)
  br label %203

203:                                              ; preds = %201, %192
  br label %204

204:                                              ; preds = %203
  br label %205

205:                                              ; preds = %204
  %206 = load ptr, ptr %7, align 8
  %207 = call i64 @PointerGetDatum(ptr noundef %206)
  store i64 %207, ptr %2, align 8
  store i32 1, ptr %11, align 4
  br label %208

208:                                              ; preds = %205, %155, %68
  call void @llvm.lifetime.end.p0(i64 8, ptr %10) #6
  call void @llvm.lifetime.end.p0(i64 8, ptr %9) #6
  call void @llvm.lifetime.end.p0(i64 8, ptr %8) #6
  call void @llvm.lifetime.end.p0(i64 8, ptr %7) #6
  call void @llvm.lifetime.end.p0(i64 8, ptr %6) #6
  call void @llvm.lifetime.end.p0(i64 8, ptr %5) #6
  call void @llvm.lifetime.end.p0(i64 8, ptr %4) #6
  %209 = load i64, ptr %2, align 8
  ret i64 %209
}