; Function Attrs: nounwind uwtable
define dso_local i64 @tsquery_rewrite(ptr noundef readonly captures(none) %0) local_unnamed_addr #0 {
  %2 = alloca i8, align 1
  %3 = getelementptr inbounds nuw i8, ptr %0, i64 32
  %4 = load i64, ptr %3, align 8
  %5 = inttoptr i64 %4 to ptr
  %6 = tail call ptr @pg_detoast_datum_copy(ptr noundef %5) #5
  %7 = getelementptr inbounds nuw i8, ptr %0, i64 48
  %8 = load i64, ptr %7, align 8
  %9 = inttoptr i64 %8 to ptr
  %10 = getelementptr inbounds nuw i8, ptr %0, i64 64
  %11 = load i64, ptr %10, align 8
  %12 = inttoptr i64 %11 to ptr
  %13 = getelementptr inbounds nuw i8, ptr %6, i64 4
  %14 = load i32, ptr %13, align 4
  %15 = icmp eq i32 %14, 0
  br i1 %15, label %57, label %16

16:                                               ; preds = %1
  %17 = getelementptr inbounds nuw i8, ptr %9, i64 4
  %18 = load i32, ptr %17, align 4
  %19 = icmp eq i32 %18, 0
  br i1 %19, label %57, label %20

20:                                               ; preds = %16
  %21 = getelementptr inbounds nuw i8, ptr %6, i64 8
  %22 = sext i32 %14 to i64
  %23 = mul nsw i64 %22, 12
  %24 = getelementptr inbounds nuw i8, ptr %21, i64 %23
  %25 = tail call ptr @QT2QTN(ptr noundef nonnull %21, ptr noundef nonnull %24) #5
  tail call void @QTNTernary(ptr noundef %25) #5
  tail call void @QTNSort(ptr noundef %25) #5
  %26 = getelementptr inbounds nuw i8, ptr %9, i64 8
  %27 = load i32, ptr %17, align 4
  %28 = sext i32 %27 to i64
  %29 = mul nsw i64 %28, 12
  %30 = getelementptr inbounds nuw i8, ptr %26, i64 %29
  %31 = tail call ptr @QT2QTN(ptr noundef nonnull %26, ptr noundef nonnull %30) #5
  tail call void @QTNTernary(ptr noundef %31) #5
  tail call void @QTNSort(ptr noundef %31) #5
  %32 = getelementptr inbounds nuw i8, ptr %12, i64 4
  %33 = load i32, ptr %32, align 4
  %.not = icmp eq i32 %33, 0
  br i1 %.not, label %40, label %34

34:                                               ; preds = %20
  %35 = getelementptr inbounds nuw i8, ptr %12, i64 8
  %36 = sext i32 %33 to i64
  %37 = mul nsw i64 %36, 12
  %38 = getelementptr inbounds nuw i8, ptr %35, i64 %37
  %39 = tail call ptr @QT2QTN(ptr noundef nonnull %35, ptr noundef nonnull %38) #5
  br label %40

40:                                               ; preds = %34, %20
  %.0 = phi ptr [ %39, %34 ], [ null, %20 ]
  call void @llvm.lifetime.start.p0(i64 1, ptr nonnull %2) #5
  %41 = call fastcc ptr @dofindsubquery(ptr noundef %25, ptr noundef %31, ptr noundef %.0, ptr noundef %2)
  call void @llvm.lifetime.end.p0(i64 1, ptr nonnull %2) #5
  tail call void @QTNFree(ptr noundef %31) #5
  tail call void @QTNFree(ptr noundef %.0) #5
  %.not64 = icmp eq ptr %41, null
  br i1 %.not64, label %42, label %47

42:                                               ; preds = %40
  store i32 32, ptr %6, align 4
  store i32 0, ptr %13, align 4
  %43 = load i64, ptr %7, align 8
  %.not65 = icmp eq i64 %8, %43
  br i1 %.not65, label %45, label %44

44:                                               ; preds = %42
  tail call void @pfree(ptr noundef nonnull %9) #5
  br label %45

45:                                               ; preds = %42, %44
  %46 = load i64, ptr %10, align 8
  %.not66 = icmp eq i64 %11, %46
  br i1 %.not66, label %57, label %.sink.split

47:                                               ; preds = %40
  tail call void @QTNBinary(ptr noundef nonnull %41) #5
  %48 = tail call ptr @QTN2QT(ptr noundef nonnull %41) #5
  tail call void @QTNFree(ptr noundef nonnull %41) #5
  %49 = load i64, ptr %3, align 8
  %50 = inttoptr i64 %49 to ptr
  %.not67 = icmp eq ptr %6, %50
  br i1 %.not67, label %52, label %51

51:                                               ; preds = %47
  tail call void @pfree(ptr noundef nonnull %6) #5
  br label %52

52:                                               ; preds = %47, %51
  %53 = load i64, ptr %7, align 8
  %.not68 = icmp eq i64 %8, %53
  br i1 %.not68, label %55, label %54

54:                                               ; preds = %52
  tail call void @pfree(ptr noundef nonnull %9) #5
  br label %55

55:                                               ; preds = %52, %54
  %56 = load i64, ptr %10, align 8
  %.not69 = icmp eq i64 %11, %56
  br i1 %.not69, label %57, label %.sink.split

.sink.split:                                      ; preds = %55, %45
  %.055.in.ph = phi ptr [ %6, %45 ], [ %48, %55 ]
  tail call void @pfree(ptr noundef nonnull %12) #5
  br label %57

57:                                               ; preds = %.sink.split, %1, %16, %55, %45
  %.055.in = phi ptr [ %6, %45 ], [ %48, %55 ], [ %6, %16 ], [ %6, %1 ], [ %.055.in.ph, %.sink.split ]
  %.055 = ptrtoint ptr %.055.in to i64
  ret i64 %.055
}